; Function Attrs: mustprogress uwtable
define void @_ZN6google7logging8internal21CheckOpMessageBuilderC2EPKc(ptr noundef nonnull writeonly align 8 captures(none) dereferenceable(8) %0, ptr noundef %1) unnamed_addr #0 align 2 personality ptr @__gxx_personality_v0 {
  %3 = tail call noalias noundef nonnull dereferenceable(376) ptr @_Znwm(i64 noundef 376) #53
  invoke void @_ZNSt7__cxx1119basic_ostringstreamIcSt11char_traitsIcESaIcEEC1Ev(ptr noundef nonnull align 8 dereferenceable(112) %3)
          to label %4 unwind label %17

4:                                                ; preds = %2
  store ptr %3, ptr %0, align 8, !tbaa !314
  %.not.i = icmp eq ptr %1, null
  br i1 %.not.i, label %5, label %13

5:                                                ; preds = %4
  %6 = load ptr, ptr %3, align 8, !tbaa !3
  %7 = getelementptr i8, ptr %6, i64 -24
  %8 = load i64, ptr %7, align 8
  %9 = getelementptr inbounds i8, ptr %3, i64 %8
  %10 = getelementptr inbounds nuw i8, ptr %9, i64 32
  %11 = load i32, ptr %10, align 8, !tbaa !121
  %12 = or i32 %11, 1
  tail call void @_ZNSt9basic_iosIcSt11char_traitsIcEE5clearESt12_Ios_Iostate(ptr noundef nonnull align 8 dereferenceable(264) %9, i32 noundef %12)
  br label %_ZStlsISt11char_traitsIcEERSt13basic_ostreamIcT_ES5_PKc.exit

13:                                               ; preds = %4
  %14 = tail call noundef i64 @strlen(ptr noundef nonnull dereferenceable(1) %1) #49
  %15 = tail call noundef nonnull align 8 dereferenceable(8) ptr @_ZSt16__ostream_insertIcSt11char_traitsIcEERSt13basic_ostreamIT_T0_ES6_PKS3_l(ptr noundef nonnull align 8 dereferenceable(8) %3, ptr noundef nonnull %1, i64 noundef %14)
  br label %_ZStlsISt11char_traitsIcEERSt13basic_ostreamIcT_ES5_PKc.exit

_ZStlsISt11char_traitsIcEERSt13basic_ostreamIcT_ES5_PKc.exit: ; preds = %5, %13
  %16 = tail call noundef nonnull align 8 dereferenceable(8) ptr @_ZSt16__ostream_insertIcSt11char_traitsIcEERSt13basic_ostreamIT_T0_ES6_PKS3_l(ptr noundef nonnull align 8 dereferenceable(8) %3, ptr noundef nonnull @.str.48, i64 noundef 2)
  ret void

17:                                               ; preds = %2
  %18 = landingpad { ptr, i32 }
          cleanup
  tail call void @_ZdlPvm(ptr noundef nonnull %3, i64 noundef 376) #51
  resume { ptr, i32 } %18
}